target datalayout = "e-m:e-p270:32:32-p271:32:32-p272:64:64-i64:64-i128:128-f80:128-n8:16:32:64-S128"
target triple = "x86_64-unknown-linux-gnu"

%"class.std::__cxx11::basic_string" = type { %"struct.std::__cxx11::basic_string<char>::_Alloc_hider", i64, %union.anon }
%"struct.std::__cxx11::basic_string<char>::_Alloc_hider" = type { ptr }
%union.anon = type { i64, [8 x i8] }
%"class.std::basic_string_view" = type { i64, ptr }
%"class.google::protobuf::FileDescriptor" = type { %"class.google::protobuf::internal::SymbolBase", i8, i8, i32, ptr, ptr, ptr, i32, ptr, i32, i32, i32, i32, i32, i32, ptr, ptr, ptr, ptr, ptr, ptr, ptr, ptr, ptr, ptr, ptr, ptr }
%"class.google::protobuf::internal::SymbolBase" = type { i8 }
%"class.google::protobuf::FileOptions" = type { %"class.google::protobuf::Message", %union.anon.10 }
%"class.google::protobuf::Message" = type { %"class.google::protobuf::MessageLite" }
%"class.google::protobuf::MessageLite" = type { ptr, %"class.google::protobuf::internal::InternalMetadata" }
%"class.google::protobuf::internal::InternalMetadata" = type { i64 }
%union.anon.10 = type { %"struct.google::protobuf::FileOptions::Impl_" }
%"struct.google::protobuf::FileOptions::Impl_" = type <{ %"class.google::protobuf::internal::ExtensionSet", %"class.google::protobuf::internal::HasBits", %"class.google::protobuf::internal::CachedSize", %"class.google::protobuf::RepeatedPtrField", %"struct.google::protobuf::internal::ArenaStringPtr", %"struct.google::protobuf::internal::ArenaStringPtr", %"struct.google::protobuf::internal::ArenaStringPtr", %"struct.google::protobuf::internal::ArenaStringPtr", %"struct.google::protobuf::internal::ArenaStringPtr", %"struct.google::protobuf::internal::ArenaStringPtr", %"struct.google::protobuf::internal::ArenaStringPtr", %"struct.google::protobuf::internal::ArenaStringPtr", %"struct.google::protobuf::internal::ArenaStringPtr", %"struct.google::protobuf::internal::ArenaStringPtr", ptr, i8, i8, i8, i8, i8, i8, i8, i8, i32, i8, [3 x i8] }>
%"class.google::protobuf::internal::ExtensionSet" = type { ptr, i16, i16, %"union.google::protobuf::internal::ExtensionSet::AllocatedData" }
%"union.google::protobuf::internal::ExtensionSet::AllocatedData" = type { ptr }
%"class.google::protobuf::internal::HasBits" = type { [1 x i32] }
%"class.google::protobuf::internal::CachedSize" = type { i32 }
%"class.google::protobuf::RepeatedPtrField" = type { %"class.google::protobuf::internal::RepeatedPtrFieldBase" }
%"class.google::protobuf::internal::RepeatedPtrFieldBase" = type { ptr, i32, i32, ptr }
%"struct.google::protobuf::internal::ArenaStringPtr" = type { %"class.google::protobuf::internal::TaggedStringPtr" }
%"class.google::protobuf::internal::TaggedStringPtr" = type { ptr }
%"class.google::protobuf::Descriptor" = type { %"class.google::protobuf::internal::SymbolBase", i8, i16, i32, ptr, ptr, ptr, ptr, ptr, ptr, ptr, ptr, ptr, ptr, ptr, ptr, ptr, ptr, i32, i32, i32, i32, i32, i32, i32, i32 }

; Function Attrs: mustprogress nounwind uwtable
define linkonce_odr hidden noundef zeroext i1 @_ZNK6google8protobuf11FileOptions29_internal_java_multiple_filesEv(ptr noundef nonnull align 8 dereferenceable(176) %this) #5 comdat align 2 {
entry:
  %this.addr = alloca ptr, align 8
  store ptr %this, ptr %this.addr, align 8
  %this1 = load ptr, ptr %this.addr, align 8
  %0 = getelementptr inbounds %"class.google::protobuf::FileOptions", ptr %this1, i32 0, i32 1
  %java_multiple_files_ = getelementptr inbounds %"struct.google::protobuf::FileOptions::Impl_", ptr %0, i32 0, i32 15
  %1 = load i8, ptr %java_multiple_files_, align 8
  %tobool = trunc i8 %1 to i1
  ret i1 %tobool
}

; Function Attrs: mustprogress uwtable
define linkonce_odr hidden noundef zeroext i1 @_ZNK6google8protobuf11FileOptions19java_multiple_filesEv(ptr noundef nonnull align 8 dereferenceable(176) %this) #4 comdat align 2 {
entry:
  %this.addr = alloca ptr, align 8
  store ptr %this, ptr %this.addr, align 8
  %this1 = load ptr, ptr %this.addr, align 8
  %call = call noundef zeroext i1 @_ZNK6google8protobuf11FileOptions29_internal_java_multiple_filesEv(ptr noundef nonnull align 8 dereferenceable(176) %this1)
  ret i1 %call
}

; Function Attrs: mustprogress nounwind uwtable
define linkonce_odr hidden noundef nonnull align 8 dereferenceable(176) ptr @_ZNK6google8protobuf14FileDescriptor7optionsEv(ptr noundef nonnull align 8 dereferenceable(168) %this) #5 comdat align 2 {
entry:
  %this.addr = alloca ptr, align 8
  store ptr %this, ptr %this.addr, align 8
  %this1 = load ptr, ptr %this.addr, align 8
  %options_ = getelementptr inbounds %"class.google::protobuf::FileDescriptor", ptr %this1, i32 0, i32 22
  %0 = load ptr, ptr %options_, align 8
  ret ptr %0
}

; Function Attrs: mustprogress uwtable
define linkonce_odr hidden noundef zeroext i1 @_ZN6google8protobuf8compiler4java17MultipleJavaFilesEPKNS0_14FileDescriptorEb(ptr noundef %descriptor, i1 noundef zeroext %immutable) #4 comdat {
entry:
  %descriptor.addr = alloca ptr, align 8
  %immutable.addr = alloca i8, align 1
  store ptr %descriptor, ptr %descriptor.addr, align 8
  %frombool = zext i1 %immutable to i8
  store i8 %frombool, ptr %immutable.addr, align 1
  %0 = load ptr, ptr %descriptor.addr, align 8
  %call = call noundef nonnull align 8 dereferenceable(176) ptr @_ZNK6google8protobuf14FileDescriptor7optionsEv(ptr noundef nonnull align 8 dereferenceable(168) %0)
  %call1 = call noundef zeroext i1 @_ZNK6google8protobuf11FileOptions19java_multiple_filesEv(ptr noundef nonnull align 8 dereferenceable(176) %call)
  ret i1 %call1
}

; Function Attrs: mustprogress nounwind uwtable
define linkonce_odr hidden noundef ptr @_ZNK6google8protobuf10Descriptor4fileEv(ptr noundef nonnull align 8 dereferenceable(152) %this) #5 comdat align 2 {
entry:
  %this.addr = alloca ptr, align 8
  store ptr %this, ptr %this.addr, align 8
  %this1 = load ptr, ptr %this.addr, align 8
  %file_ = getelementptr inbounds %"class.google::protobuf::Descriptor", ptr %this1, i32 0, i32 5
  %0 = load ptr, ptr %file_, align 8
  ret ptr %0
}

; Function Attrs: mustprogress uwtable
define hidden void @_ZN6google8protobuf8compiler4java17ClassNameResolver12GetClassNameB5cxx11EPKNS0_10DescriptorEbb(ptr noalias sret(%"class.std::__cxx11::basic_string") align 8 %agg.result, ptr noundef nonnull align 8 dereferenceable(112) %this, ptr noundef %descriptor, i1 noundef zeroext %immutable, i1 noundef zeroext %kotlin) #4 align 2 personality ptr @__gxx_personality_v0 {
entry:
  %result.ptr = alloca ptr, align 8
  %this.addr = alloca ptr, align 8
  %descriptor.addr = alloca ptr, align 8
  %immutable.addr = alloca i8, align 1
  %kotlin.addr = alloca i8, align 1
  %agg.tmp = alloca %"class.std::basic_string_view", align 8
  %ref.tmp = alloca %"class.std::__cxx11::basic_string", align 8
  %exn.slot = alloca ptr, align 8
  %ehselector.slot = alloca i32, align 4
  store ptr %agg.result, ptr %result.ptr, align 8
  store ptr %this, ptr %this.addr, align 8
  store ptr %descriptor, ptr %descriptor.addr, align 8
  %frombool = zext i1 %immutable to i8
  store i8 %frombool, ptr %immutable.addr, align 1
  %frombool1 = zext i1 %kotlin to i8
  store i8 %frombool1, ptr %kotlin.addr, align 1
  %this2 = load ptr, ptr %this.addr, align 8
  %0 = load ptr, ptr %descriptor.addr, align 8
  %1 = load i8, ptr %immutable.addr, align 1
  %tobool = trunc i8 %1 to i1
  call void @_ZN6google8protobuf8compiler4java12_GLOBAL__N_123ClassNameWithoutPackageB5cxx11EPKNS0_10DescriptorEb(ptr sret(%"class.std::__cxx11::basic_string") align 8 %ref.tmp, ptr noundef %0, i1 noundef zeroext %tobool)
  %call = call { i64, ptr } @_ZNKSt7__cxx1112basic_stringIcSt11char_traitsIcESaIcEEcvSt17basic_string_viewIcS2_EEv(ptr noundef nonnull align 8 dereferenceable(32) %ref.tmp) #3
  %2 = getelementptr inbounds { i64, ptr }, ptr %agg.tmp, i32 0, i32 0
  %3 = extractvalue { i64, ptr } %call, 0
  store i64 %3, ptr %2, align 8
  %4 = getelementptr inbounds { i64, ptr }, ptr %agg.tmp, i32 0, i32 1
  %5 = extractvalue { i64, ptr } %call, 1
  store ptr %5, ptr %4, align 8
  %6 = load ptr, ptr %descriptor.addr, align 8
  %call3 = invoke noundef ptr @_ZNK6google8protobuf10Descriptor4fileEv(ptr noundef nonnull align 8 dereferenceable(152) %6)
          to label %invoke.cont unwind label %lpad

invoke.cont:                                      ; preds = %entry
  %7 = load i8, ptr %immutable.addr, align 1
  %tobool4 = trunc i8 %7 to i1
  %8 = load ptr, ptr %descriptor.addr, align 8
  %call6 = invoke noundef ptr @_ZNK6google8protobuf10Descriptor4fileEv(ptr noundef nonnull align 8 dereferenceable(152) %8)
          to label %invoke.cont5 unwind label %lpad

invoke.cont5:                                     ; preds = %invoke.cont
  %9 = load i8, ptr %immutable.addr, align 1
  %tobool7 = trunc i8 %9 to i1
  %call9 = invoke noundef zeroext i1 @_ZN6google8protobuf8compiler4java17MultipleJavaFilesEPKNS0_14FileDescriptorEb(ptr noundef %call6, i1 noundef zeroext %tobool7)
          to label %invoke.cont8 unwind label %lpad

invoke.cont8:                                     ; preds = %invoke.cont5
  %10 = load i8, ptr %kotlin.addr, align 1
  %tobool10 = trunc i8 %10 to i1
  %11 = getelementptr inbounds { i64, ptr }, ptr %agg.tmp, i32 0, i32 0
  %12 = load i64, ptr %11, align 8
  %13 = getelementptr inbounds { i64, ptr }, ptr %agg.tmp, i32 0, i32 1
  %14 = load ptr, ptr %13, align 8
  invoke void @_ZN6google8protobuf8compiler4java17ClassNameResolver16GetClassFullNameB5cxx11ESt17basic_string_viewIcSt11char_traitsIcEEPKNS0_14FileDescriptorEbbb(ptr sret(%"class.std::__cxx11::basic_string") align 8 %agg.result, ptr noundef nonnull align 8 dereferenceable(112) %this2, i64 %12, ptr %14, ptr noundef %call3, i1 noundef zeroext %tobool4, i1 noundef zeroext %call9, i1 noundef zeroext %tobool10)
          to label %invoke.cont11 unwind label %lpad

invoke.cont11:                                    ; preds = %invoke.cont8
  call void @_ZNSt7__cxx1112basic_stringIcSt11char_traitsIcESaIcEED1Ev(ptr noundef nonnull align 8 dereferenceable(32) %ref.tmp) #3
  ret void

lpad:                                             ; preds = %invoke.cont8, %invoke.cont5, %invoke.cont, %entry
  %15 = landingpad { ptr, i32 }
          cleanup
  %16 = extractvalue { ptr, i32 } %15, 0
  store ptr %16, ptr %exn.slot, align 8
  %17 = extractvalue { ptr, i32 } %15, 1
  store i32 %17, ptr %ehselector.slot, align 4
  call void @_ZNSt7__cxx1112basic_stringIcSt11char_traitsIcESaIcEED1Ev(ptr noundef nonnull align 8 dereferenceable(32) %ref.tmp) #3
  br label %eh.resume

eh.resume:                                        ; preds = %lpad
  %exn = load ptr, ptr %exn.slot, align 8
  %sel = load i32, ptr %ehselector.slot, align 4
  %lpad.val = insertvalue { ptr, i32 } poison, ptr %exn, 0
  %lpad.val12 = insertvalue { ptr, i32 } %lpad.val, i32 %sel, 1
  resume { ptr, i32 } %lpad.val12
}

; Function Attrs: mustprogress uwtable
define hidden void @_ZN6google8protobuf8compiler4java17ClassNameResolver12GetClassNameB5cxx11EPKNS0_10DescriptorEb(ptr noalias sret(%"class.std::__cxx11::basic_string") align 8 %agg.result, ptr noundef nonnull align 8 dereferenceable(112) %this, ptr noundef %descriptor, i1 noundef zeroext %immutable) #4 align 2 {
entry:
  %result.ptr = alloca ptr, align 8
  %this.addr = alloca ptr, align 8
  %descriptor.addr = alloca ptr, align 8
  %immutable.addr = alloca i8, align 1
  store ptr %agg.result, ptr %result.ptr, align 8
  store ptr %this, ptr %this.addr, align 8
  store ptr %descriptor, ptr %descriptor.addr, align 8
  %frombool = zext i1 %immutable to i8
  store i8 %frombool, ptr %immutable.addr, align 1
  %this1 = load ptr, ptr %this.addr, align 8
  %0 = load ptr, ptr %descriptor.addr, align 8
  %1 = load i8, ptr %immutable.addr, align 1
  %tobool = trunc i8 %1 to i1
  call void @_ZN6google8protobuf8compiler4java17ClassNameResolver12GetClassNameB5cxx11EPKNS0_10DescriptorEbb(ptr sret(%"class.std::__cxx11::basic_string") align 8 %agg.result, ptr noundef nonnull align 8 dereferenceable(112) %this1, ptr noundef %0, i1 noundef zeroext %tobool, i1 noundef zeroext false)
  ret void
}